target datalayout = "e-m:e-p270:32:32-p271:32:32-p272:64:64-i64:64-i128:128-f80:128-n8:16:32:64-S128"
target triple = "x86_64-pc-linux-gnu"

%struct.MvcCubeStruct = type { ptr, i32, i32, [1 x i32] }

; Function Attrs: nounwind uwtable
define i32 @Mvc_CubeCompareIntOutsideAndUnderMask(ptr noundef %0, ptr noundef %1, ptr noundef %2) #0 {
  %4 = alloca i32, align 4
  %5 = alloca ptr, align 8
  %6 = alloca ptr, align 8
  %7 = alloca ptr, align 8
  %8 = alloca i32, align 4
  %9 = alloca i32, align 4
  %10 = alloca i32, align 4
  %11 = alloca i32, align 4
  store ptr %0, ptr %5, align 8, !tbaa !3
  store ptr %1, ptr %6, align 8, !tbaa !3
  store ptr %2, ptr %7, align 8, !tbaa !3
  call void @llvm.lifetime.start.p0(i64 4, ptr %8) #2
  call void @llvm.lifetime.start.p0(i64 4, ptr %9) #2
  %12 = load ptr, ptr %5, align 8, !tbaa !3
  %13 = getelementptr inbounds nuw %struct.MvcCubeStruct, ptr %12, i32 0, i32 1
  %14 = load i32, ptr %13, align 8
  %15 = and i32 %14, 16777215
  %16 = icmp eq i32 %15, 0
  br i1 %16, label %17, label %76

17:                                               ; preds = %3
  %18 = load ptr, ptr %5, align 8, !tbaa !3
  %19 = getelementptr inbounds nuw %struct.MvcCubeStruct, ptr %18, i32 0, i32 3
  %20 = getelementptr inbounds [1 x i32], ptr %19, i64 0, i64 0
  %21 = load i32, ptr %20, align 8, !tbaa !8
  %22 = load ptr, ptr %7, align 8, !tbaa !3
  %23 = getelementptr inbounds nuw %struct.MvcCubeStruct, ptr %22, i32 0, i32 3
  %24 = getelementptr inbounds [1 x i32], ptr %23, i64 0, i64 0
  %25 = load i32, ptr %24, align 8, !tbaa !8
  %26 = xor i32 %25, -1
  %27 = and i32 %21, %26
  store i32 %27, ptr %8, align 4, !tbaa !8
  %28 = load ptr, ptr %6, align 8, !tbaa !3
  %29 = getelementptr inbounds nuw %struct.MvcCubeStruct, ptr %28, i32 0, i32 3
  %30 = getelementptr inbounds [1 x i32], ptr %29, i64 0, i64 0
  %31 = load i32, ptr %30, align 8, !tbaa !8
  %32 = load ptr, ptr %7, align 8, !tbaa !3
  %33 = getelementptr inbounds nuw %struct.MvcCubeStruct, ptr %32, i32 0, i32 3
  %34 = getelementptr inbounds [1 x i32], ptr %33, i64 0, i64 0
  %35 = load i32, ptr %34, align 8, !tbaa !8
  %36 = xor i32 %35, -1
  %37 = and i32 %31, %36
  store i32 %37, ptr %9, align 4, !tbaa !8
  %38 = load i32, ptr %8, align 4, !tbaa !8
  %39 = load i32, ptr %9, align 4, !tbaa !8
  %40 = icmp ult i32 %38, %39
  br i1 %40, label %41, label %42

41:                                               ; preds = %17
  store i32 -1, ptr %4, align 4
  store i32 1, ptr %10, align 4
  br label %299

42:                                               ; preds = %17
  %43 = load i32, ptr %8, align 4, !tbaa !8
  %44 = load i32, ptr %9, align 4, !tbaa !8
  %45 = icmp ugt i32 %43, %44
  br i1 %45, label %46, label %47

46:                                               ; preds = %42
  store i32 1, ptr %4, align 4
  store i32 1, ptr %10, align 4
  br label %299

47:                                               ; preds = %42
  %48 = load ptr, ptr %5, align 8, !tbaa !3
  %49 = getelementptr inbounds nuw %struct.MvcCubeStruct, ptr %48, i32 0, i32 3
  %50 = getelementptr inbounds [1 x i32], ptr %49, i64 0, i64 0
  %51 = load i32, ptr %50, align 8, !tbaa !8
  %52 = load ptr, ptr %7, align 8, !tbaa !3
  %53 = getelementptr inbounds nuw %struct.MvcCubeStruct, ptr %52, i32 0, i32 3
  %54 = getelementptr inbounds [1 x i32], ptr %53, i64 0, i64 0
  %55 = load i32, ptr %54, align 8, !tbaa !8
  %56 = and i32 %51, %55
  store i32 %56, ptr %8, align 4, !tbaa !8
  %57 = load ptr, ptr %6, align 8, !tbaa !3
  %58 = getelementptr inbounds nuw %struct.MvcCubeStruct, ptr %57, i32 0, i32 3
  %59 = getelementptr inbounds [1 x i32], ptr %58, i64 0, i64 0
  %60 = load i32, ptr %59, align 8, !tbaa !8
  %61 = load ptr, ptr %7, align 8, !tbaa !3
  %62 = getelementptr inbounds nuw %struct.MvcCubeStruct, ptr %61, i32 0, i32 3
  %63 = getelementptr inbounds [1 x i32], ptr %62, i64 0, i64 0
  %64 = load i32, ptr %63, align 8, !tbaa !8
  %65 = and i32 %60, %64
  store i32 %65, ptr %9, align 4, !tbaa !8
  %66 = load i32, ptr %8, align 4, !tbaa !8
  %67 = load i32, ptr %9, align 4, !tbaa !8
  %68 = icmp ult i32 %66, %67
  br i1 %68, label %69, label %70

69:                                               ; preds = %47
  store i32 -1, ptr %4, align 4
  store i32 1, ptr %10, align 4
  br label %299

70:                                               ; preds = %47
  %71 = load i32, ptr %8, align 4, !tbaa !8
  %72 = load i32, ptr %9, align 4, !tbaa !8
  %73 = icmp ugt i32 %71, %72
  br i1 %73, label %74, label %75

74:                                               ; preds = %70
  store i32 1, ptr %4, align 4
  store i32 1, ptr %10, align 4
  br label %299

75:                                               ; preds = %70
  store i32 0, ptr %4, align 4
  store i32 1, ptr %10, align 4
  br label %299

76:                                               ; preds = %3
  %77 = load ptr, ptr %5, align 8, !tbaa !3
  %78 = getelementptr inbounds nuw %struct.MvcCubeStruct, ptr %77, i32 0, i32 1
  %79 = load i32, ptr %78, align 8
  %80 = and i32 %79, 16777215
  %81 = icmp eq i32 %80, 1
  br i1 %81, label %82, label %199

82:                                               ; preds = %76
  %83 = load ptr, ptr %5, align 8, !tbaa !3
  %84 = getelementptr inbounds nuw %struct.MvcCubeStruct, ptr %83, i32 0, i32 3
  %85 = getelementptr inbounds [1 x i32], ptr %84, i64 0, i64 1
  %86 = load i32, ptr %85, align 4, !tbaa !8
  %87 = load ptr, ptr %7, align 8, !tbaa !3
  %88 = getelementptr inbounds nuw %struct.MvcCubeStruct, ptr %87, i32 0, i32 3
  %89 = getelementptr inbounds [1 x i32], ptr %88, i64 0, i64 1
  %90 = load i32, ptr %89, align 4, !tbaa !8
  %91 = xor i32 %90, -1
  %92 = and i32 %86, %91
  store i32 %92, ptr %8, align 4, !tbaa !8
  %93 = load ptr, ptr %6, align 8, !tbaa !3
  %94 = getelementptr inbounds nuw %struct.MvcCubeStruct, ptr %93, i32 0, i32 3
  %95 = getelementptr inbounds [1 x i32], ptr %94, i64 0, i64 1
  %96 = load i32, ptr %95, align 4, !tbaa !8
  %97 = load ptr, ptr %7, align 8, !tbaa !3
  %98 = getelementptr inbounds nuw %struct.MvcCubeStruct, ptr %97, i32 0, i32 3
  %99 = getelementptr inbounds [1 x i32], ptr %98, i64 0, i64 1
  %100 = load i32, ptr %99, align 4, !tbaa !8
  %101 = xor i32 %100, -1
  %102 = and i32 %96, %101
  store i32 %102, ptr %9, align 4, !tbaa !8
  %103 = load i32, ptr %8, align 4, !tbaa !8
  %104 = load i32, ptr %9, align 4, !tbaa !8
  %105 = icmp ult i32 %103, %104
  br i1 %105, label %106, label %107

106:                                              ; preds = %82
  store i32 -1, ptr %4, align 4
  store i32 1, ptr %10, align 4
  br label %299

107:                                              ; preds = %82
  %108 = load i32, ptr %8, align 4, !tbaa !8
  %109 = load i32, ptr %9, align 4, !tbaa !8
  %110 = icmp ugt i32 %108, %109
  br i1 %110, label %111, label %112

111:                                              ; preds = %107
  store i32 1, ptr %4, align 4
  store i32 1, ptr %10, align 4
  br label %299

112:                                              ; preds = %107
  %113 = load ptr, ptr %5, align 8, !tbaa !3
  %114 = getelementptr inbounds nuw %struct.MvcCubeStruct, ptr %113, i32 0, i32 3
  %115 = getelementptr inbounds [1 x i32], ptr %114, i64 0, i64 0
  %116 = load i32, ptr %115, align 8, !tbaa !8
  %117 = load ptr, ptr %7, align 8, !tbaa !3
  %118 = getelementptr inbounds nuw %struct.MvcCubeStruct, ptr %117, i32 0, i32 3
  %119 = getelementptr inbounds [1 x i32], ptr %118, i64 0, i64 0
  %120 = load i32, ptr %119, align 8, !tbaa !8
  %121 = xor i32 %120, -1
  %122 = and i32 %116, %121
  store i32 %122, ptr %8, align 4, !tbaa !8
  %123 = load ptr, ptr %6, align 8, !tbaa !3
  %124 = getelementptr inbounds nuw %struct.MvcCubeStruct, ptr %123, i32 0, i32 3
  %125 = getelementptr inbounds [1 x i32], ptr %124, i64 0, i64 0
  %126 = load i32, ptr %125, align 8, !tbaa !8
  %127 = load ptr, ptr %7, align 8, !tbaa !3
  %128 = getelementptr inbounds nuw %struct.MvcCubeStruct, ptr %127, i32 0, i32 3
  %129 = getelementptr inbounds [1 x i32], ptr %128, i64 0, i64 0
  %130 = load i32, ptr %129, align 8, !tbaa !8
  %131 = xor i32 %130, -1
  %132 = and i32 %126, %131
  store i32 %132, ptr %9, align 4, !tbaa !8
  %133 = load i32, ptr %8, align 4, !tbaa !8
  %134 = load i32, ptr %9, align 4, !tbaa !8
  %135 = icmp ult i32 %133, %134
  br i1 %135, label %136, label %137

136:                                              ; preds = %112
  store i32 -1, ptr %4, align 4
  store i32 1, ptr %10, align 4
  br label %299

137:                                              ; preds = %112
  %138 = load i32, ptr %8, align 4, !tbaa !8
  %139 = load i32, ptr %9, align 4, !tbaa !8
  %140 = icmp ugt i32 %138, %139
  br i1 %140, label %141, label %142

141:                                              ; preds = %137
  store i32 1, ptr %4, align 4
  store i32 1, ptr %10, align 4
  br label %299

142:                                              ; preds = %137
  %143 = load ptr, ptr %5, align 8, !tbaa !3
  %144 = getelementptr inbounds nuw %struct.MvcCubeStruct, ptr %143, i32 0, i32 3
  %145 = getelementptr inbounds [1 x i32], ptr %144, i64 0, i64 1
  %146 = load i32, ptr %145, align 4, !tbaa !8
  %147 = load ptr, ptr %7, align 8, !tbaa !3
  %148 = getelementptr inbounds nuw %struct.MvcCubeStruct, ptr %147, i32 0, i32 3
  %149 = getelementptr inbounds [1 x i32], ptr %148, i64 0, i64 1
  %150 = load i32, ptr %149, align 4, !tbaa !8
  %151 = and i32 %146, %150
  store i32 %151, ptr %8, align 4, !tbaa !8
  %152 = load ptr, ptr %6, align 8, !tbaa !3
  %153 = getelementptr inbounds nuw %struct.MvcCubeStruct, ptr %152, i32 0, i32 3
  %154 = getelementptr inbounds [1 x i32], ptr %153, i64 0, i64 1
  %155 = load i32, ptr %154, align 4, !tbaa !8
  %156 = load ptr, ptr %7, align 8, !tbaa !3
  %157 = getelementptr inbounds nuw %struct.MvcCubeStruct, ptr %156, i32 0, i32 3
  %158 = getelementptr inbounds [1 x i32], ptr %157, i64 0, i64 1
  %159 = load i32, ptr %158, align 4, !tbaa !8
  %160 = and i32 %155, %159
  store i32 %160, ptr %9, align 4, !tbaa !8
  %161 = load i32, ptr %8, align 4, !tbaa !8
  %162 = load i32, ptr %9, align 4, !tbaa !8
  %163 = icmp ult i32 %161, %162
  br i1 %163, label %164, label %165

164:                                              ; preds = %142
  store i32 -1, ptr %4, align 4
  store i32 1, ptr %10, align 4
  br label %299

165:                                              ; preds = %142
  %166 = load i32, ptr %8, align 4, !tbaa !8
  %167 = load i32, ptr %9, align 4, !tbaa !8
  %168 = icmp ugt i32 %166, %167
  br i1 %168, label %169, label %170

169:                                              ; preds = %165
  store i32 1, ptr %4, align 4
  store i32 1, ptr %10, align 4
  br label %299

170:                                              ; preds = %165
  %171 = load ptr, ptr %5, align 8, !tbaa !3
  %172 = getelementptr inbounds nuw %struct.MvcCubeStruct, ptr %171, i32 0, i32 3
  %173 = getelementptr inbounds [1 x i32], ptr %172, i64 0, i64 0
  %174 = load i32, ptr %173, align 8, !tbaa !8
  %175 = load ptr, ptr %7, align 8, !tbaa !3
  %176 = getelementptr inbounds nuw %struct.MvcCubeStruct, ptr %175, i32 0, i32 3
  %177 = getelementptr inbounds [1 x i32], ptr %176, i64 0, i64 0
  %178 = load i32, ptr %177, align 8, !tbaa !8
  %179 = and i32 %174, %178
  store i32 %179, ptr %8, align 4, !tbaa !8
  %180 = load ptr, ptr %6, align 8, !tbaa !3
  %181 = getelementptr inbounds nuw %struct.MvcCubeStruct, ptr %180, i32 0, i32 3
  %182 = getelementptr inbounds [1 x i32], ptr %181, i64 0, i64 0
  %183 = load i32, ptr %182, align 8, !tbaa !8
  %184 = load ptr, ptr %7, align 8, !tbaa !3
  %185 = getelementptr inbounds nuw %struct.MvcCubeStruct, ptr %184, i32 0, i32 3
  %186 = getelementptr inbounds [1 x i32], ptr %185, i64 0, i64 0
  %187 = load i32, ptr %186, align 8, !tbaa !8
  %188 = and i32 %183, %187
  store i32 %188, ptr %9, align 4, !tbaa !8
  %189 = load i32, ptr %8, align 4, !tbaa !8
  %190 = load i32, ptr %9, align 4, !tbaa !8
  %191 = icmp ult i32 %189, %190
  br i1 %191, label %192, label %193

192:                                              ; preds = %170
  store i32 -1, ptr %4, align 4
  store i32 1, ptr %10, align 4
  br label %299

193:                                              ; preds = %170
  %194 = load i32, ptr %8, align 4, !tbaa !8
  %195 = load i32, ptr %9, align 4, !tbaa !8
  %196 = icmp ugt i32 %194, %195
  br i1 %196, label %197, label %198

197:                                              ; preds = %193
  store i32 1, ptr %4, align 4
  store i32 1, ptr %10, align 4
  br label %299

198:                                              ; preds = %193
  store i32 0, ptr %4, align 4
  store i32 1, ptr %10, align 4
  br label %299

199:                                              ; preds = %76
  call void @llvm.lifetime.start.p0(i64 4, ptr %11) #2
  %200 = load ptr, ptr %5, align 8, !tbaa !3
  %201 = getelementptr inbounds nuw %struct.MvcCubeStruct, ptr %200, i32 0, i32 1
  %202 = load i32, ptr %201, align 8
  %203 = and i32 %202, 16777215
  store i32 %203, ptr %11, align 4, !tbaa !8
  br label %204

204:                                              ; preds = %246, %199
  %205 = load i32, ptr %11, align 4, !tbaa !8
  %206 = icmp sge i32 %205, 0
  br i1 %206, label %207, label %249

207:                                              ; preds = %204
  %208 = load ptr, ptr %5, align 8, !tbaa !3
  %209 = getelementptr inbounds nuw %struct.MvcCubeStruct, ptr %208, i32 0, i32 3
  %210 = load i32, ptr %11, align 4, !tbaa !8
  %211 = sext i32 %210 to i64
  %212 = getelementptr inbounds [1 x i32], ptr %209, i64 0, i64 %211
  %213 = load i32, ptr %212, align 4, !tbaa !8
  %214 = load ptr, ptr %7, align 8, !tbaa !3
  %215 = getelementptr inbounds nuw %struct.MvcCubeStruct, ptr %214, i32 0, i32 3
  %216 = load i32, ptr %11, align 4, !tbaa !8
  %217 = sext i32 %216 to i64
  %218 = getelementptr inbounds [1 x i32], ptr %215, i64 0, i64 %217
  %219 = load i32, ptr %218, align 4, !tbaa !8
  %220 = xor i32 %219, -1
  %221 = and i32 %213, %220
  store i32 %221, ptr %8, align 4, !tbaa !8
  %222 = load ptr, ptr %6, align 8, !tbaa !3
  %223 = getelementptr inbounds nuw %struct.MvcCubeStruct, ptr %222, i32 0, i32 3
  %224 = load i32, ptr %11, align 4, !tbaa !8
  %225 = sext i32 %224 to i64
  %226 = getelementptr inbounds [1 x i32], ptr %223, i64 0, i64 %225
  %227 = load i32, ptr %226, align 4, !tbaa !8
  %228 = load ptr, ptr %7, align 8, !tbaa !3
  %229 = getelementptr inbounds nuw %struct.MvcCubeStruct, ptr %228, i32 0, i32 3
  %230 = load i32, ptr %11, align 4, !tbaa !8
  %231 = sext i32 %230 to i64
  %232 = getelementptr inbounds [1 x i32], ptr %229, i64 0, i64 %231
  %233 = load i32, ptr %232, align 4, !tbaa !8
  %234 = xor i32 %233, -1
  %235 = and i32 %227, %234
  store i32 %235, ptr %9, align 4, !tbaa !8
  %236 = load i32, ptr %8, align 4, !tbaa !8
  %237 = load i32, ptr %9, align 4, !tbaa !8
  %238 = icmp ult i32 %236, %237
  br i1 %238, label %239, label %240

239:                                              ; preds = %207
  store i32 -1, ptr %4, align 4
  store i32 1, ptr %10, align 4
  br label %298

240:                                              ; preds = %207
  %241 = load i32, ptr %8, align 4, !tbaa !8
  %242 = load i32, ptr %9, align 4, !tbaa !8
  %243 = icmp ugt i32 %241, %242
  br i1 %243, label %244, label %245

244:                                              ; preds = %240
  store i32 1, ptr %4, align 4
  store i32 1, ptr %10, align 4
  br label %298

245:                                              ; preds = %240
  br label %246

246:                                              ; preds = %245
  %247 = load i32, ptr %11, align 4, !tbaa !8
  %248 = add nsw i32 %247, -1
  store i32 %248, ptr %11, align 4, !tbaa !8
  br label %204, !llvm.loop !17

249:                                              ; preds = %204
  %250 = load ptr, ptr %5, align 8, !tbaa !3
  %251 = getelementptr inbounds nuw %struct.MvcCubeStruct, ptr %250, i32 0, i32 1
  %252 = load i32, ptr %251, align 8
  %253 = and i32 %252, 16777215
  store i32 %253, ptr %11, align 4, !tbaa !8
  br label %254

254:                                              ; preds = %294, %249
  %255 = load i32, ptr %11, align 4, !tbaa !8
  %256 = icmp sge i32 %255, 0
  br i1 %256, label %257, label %297

257:                                              ; preds = %254
  %258 = load ptr, ptr %5, align 8, !tbaa !3
  %259 = getelementptr inbounds nuw %struct.MvcCubeStruct, ptr %258, i32 0, i32 3
  %260 = load i32, ptr %11, align 4, !tbaa !8
  %261 = sext i32 %260 to i64
  %262 = getelementptr inbounds [1 x i32], ptr %259, i64 0, i64 %261
  %263 = load i32, ptr %262, align 4, !tbaa !8
  %264 = load ptr, ptr %7, align 8, !tbaa !3
  %265 = getelementptr inbounds nuw %struct.MvcCubeStruct, ptr %264, i32 0, i32 3
  %266 = load i32, ptr %11, align 4, !tbaa !8
  %267 = sext i32 %266 to i64
  %268 = getelementptr inbounds [1 x i32], ptr %265, i64 0, i64 %267
  %269 = load i32, ptr %268, align 4, !tbaa !8
  %270 = and i32 %263, %269
  store i32 %270, ptr %8, align 4, !tbaa !8
  %271 = load ptr, ptr %6, align 8, !tbaa !3
  %272 = getelementptr inbounds nuw %struct.MvcCubeStruct, ptr %271, i32 0, i32 3
  %273 = load i32, ptr %11, align 4, !tbaa !8
  %274 = sext i32 %273 to i64
  %275 = getelementptr inbounds [1 x i32], ptr %272, i64 0, i64 %274
  %276 = load i32, ptr %275, align 4, !tbaa !8
  %277 = load ptr, ptr %7, align 8, !tbaa !3
  %278 = getelementptr inbounds nuw %struct.MvcCubeStruct, ptr %277, i32 0, i32 3
  %279 = load i32, ptr %11, align 4, !tbaa !8
  %280 = sext i32 %279 to i64
  %281 = getelementptr inbounds [1 x i32], ptr %278, i64 0, i64 %280
  %282 = load i32, ptr %281, align 4, !tbaa !8
  %283 = and i32 %276, %282
  store i32 %283, ptr %9, align 4, !tbaa !8
  %284 = load i32, ptr %8, align 4, !tbaa !8
  %285 = load i32, ptr %9, align 4, !tbaa !8
  %286 = icmp ult i32 %284, %285
  br i1 %286, label %287, label %288

287:                                              ; preds = %257
  store i32 -1, ptr %4, align 4
  store i32 1, ptr %10, align 4
  br label %298

288:                                              ; preds = %257
  %289 = load i32, ptr %8, align 4, !tbaa !8
  %290 = load i32, ptr %9, align 4, !tbaa !8
  %291 = icmp ugt i32 %289, %290
  br i1 %291, label %292, label %293

292:                                              ; preds = %288
  store i32 1, ptr %4, align 4
  store i32 1, ptr %10, align 4
  br label %298

293:                                              ; preds = %288
  br label %294

294:                                              ; preds = %293
  %295 = load i32, ptr %11, align 4, !tbaa !8
  %296 = add nsw i32 %295, -1
  store i32 %296, ptr %11, align 4, !tbaa !8
  br label %254, !llvm.loop !18

297:                                              ; preds = %254
  store i32 0, ptr %4, align 4
  store i32 1, ptr %10, align 4
  br label %298

298:                                              ; preds = %297, %292, %287, %244, %239
  call void @llvm.lifetime.end.p0(i64 4, ptr %11) #2
  br label %299

299:                                              ; preds = %298, %198, %197, %192, %169, %164, %141, %136, %111, %106, %75, %74, %69, %46, %41
  call void @llvm.lifetime.end.p0(i64 4, ptr %9) #2
  call void @llvm.lifetime.end.p0(i64 4, ptr %8) #2
  %300 = load i32, ptr %4, align 4
  ret i32 %300
}