; Function Attrs: nofree norecurse nosync nounwind memory(argmem: read) uwtable
define range(i32 -1, 2) i32 @Mvc_CubeCompareIntOutsideAndUnderMask(ptr noundef readonly captures(none) %0, ptr noundef readonly captures(none) %1, ptr noundef readonly captures(none) %2) local_unnamed_addr #0 {
  %4 = getelementptr inbounds nuw i8, ptr %0, i64 8
  %5 = load i32, ptr %4, align 8
  %6 = and i32 %5, 16777215
  %7 = getelementptr inbounds nuw i8, ptr %0, i64 16
  switch i32 %6, label %.preheader100 [
    i32 0, label %10
    i32 1, label %28
  ]

.preheader100:                                    ; preds = %3
  %8 = getelementptr inbounds nuw i8, ptr %2, i64 16
  %9 = getelementptr inbounds nuw i8, ptr %1, i64 16
  br label %68

10:                                               ; preds = %3
  %11 = load i32, ptr %7, align 8, !tbaa !3
  %12 = getelementptr inbounds nuw i8, ptr %2, i64 16
  %13 = load i32, ptr %12, align 8, !tbaa !3
  %14 = xor i32 %13, -1
  %15 = and i32 %11, %14
  %16 = getelementptr inbounds nuw i8, ptr %1, i64 16
  %17 = load i32, ptr %16, align 8, !tbaa !3
  %18 = and i32 %17, %14
  %19 = icmp ult i32 %15, %18
  br i1 %19, label %.loopexit, label %20

20:                                               ; preds = %10
  %21 = icmp ugt i32 %15, %18
  br i1 %21, label %.loopexit, label %22

22:                                               ; preds = %20
  %23 = and i32 %13, %11
  %24 = and i32 %17, %13
  %25 = icmp ult i32 %23, %24
  br i1 %25, label %.loopexit, label %26

26:                                               ; preds = %22
  %27 = icmp ugt i32 %23, %24
  %. = zext i1 %27 to i32
  br label %.loopexit

28:                                               ; preds = %3
  %29 = getelementptr inbounds nuw i8, ptr %0, i64 20
  %30 = load i32, ptr %29, align 4, !tbaa !3
  %31 = getelementptr inbounds nuw i8, ptr %2, i64 16
  %32 = getelementptr inbounds nuw i8, ptr %2, i64 20
  %33 = load i32, ptr %32, align 4, !tbaa !3
  %34 = xor i32 %33, -1
  %35 = and i32 %30, %34
  %36 = getelementptr inbounds nuw i8, ptr %1, i64 16
  %37 = getelementptr inbounds nuw i8, ptr %1, i64 20
  %38 = load i32, ptr %37, align 4, !tbaa !3
  %39 = and i32 %38, %34
  %40 = icmp ult i32 %35, %39
  br i1 %40, label %.loopexit, label %41

41:                                               ; preds = %28
  %42 = icmp ugt i32 %35, %39
  br i1 %42, label %.loopexit, label %43

43:                                               ; preds = %41
  %44 = load i32, ptr %7, align 8, !tbaa !3
  %45 = load i32, ptr %31, align 8, !tbaa !3
  %46 = xor i32 %45, -1
  %47 = and i32 %44, %46
  %48 = load i32, ptr %36, align 8, !tbaa !3
  %49 = and i32 %48, %46
  %50 = icmp ult i32 %47, %49
  br i1 %50, label %.loopexit, label %51

51:                                               ; preds = %43
  %52 = icmp ugt i32 %47, %49
  br i1 %52, label %.loopexit, label %53

53:                                               ; preds = %51
  %54 = and i32 %33, %30
  %55 = and i32 %38, %33
  %56 = icmp ult i32 %54, %55
  br i1 %56, label %.loopexit, label %57

57:                                               ; preds = %53
  %58 = icmp ugt i32 %54, %55
  br i1 %58, label %.loopexit, label %59

59:                                               ; preds = %57
  %60 = and i32 %45, %44
  %61 = and i32 %48, %45
  %62 = icmp ult i32 %60, %61
  br i1 %62, label %.loopexit, label %63

63:                                               ; preds = %59
  %64 = icmp ugt i32 %60, %61
  %.99 = zext i1 %64 to i32
  br label %.loopexit

65:                                               ; preds = %80
  %66 = add nsw i32 %.0103, -1
  %67 = icmp sgt i32 %.0103, 0
  br i1 %67, label %68, label %.preheader, !llvm.loop !16

68:                                               ; preds = %.preheader100, %65
  %.0103 = phi i32 [ %6, %.preheader100 ], [ %66, %65 ]
  %69 = zext nneg i32 %.0103 to i64
  %70 = getelementptr inbounds nuw [1 x i32], ptr %7, i64 0, i64 %69
  %71 = load i32, ptr %70, align 4, !tbaa !3
  %72 = getelementptr inbounds nuw [1 x i32], ptr %8, i64 0, i64 %69
  %73 = load i32, ptr %72, align 4, !tbaa !3
  %74 = xor i32 %73, -1
  %75 = and i32 %71, %74
  %76 = getelementptr inbounds nuw [1 x i32], ptr %9, i64 0, i64 %69
  %77 = load i32, ptr %76, align 4, !tbaa !3
  %78 = and i32 %77, %74
  %79 = icmp ult i32 %75, %78
  br i1 %79, label %.loopexit, label %80

80:                                               ; preds = %68
  %81 = icmp ugt i32 %75, %78
  br i1 %81, label %.loopexit, label %65

82:                                               ; preds = %95
  %83 = add nsw i32 %.1104, -1
  %84 = icmp sgt i32 %.1104, 0
  br i1 %84, label %.preheader, label %.loopexit, !llvm.loop !17

.preheader:                                       ; preds = %65, %82
  %.1104 = phi i32 [ %83, %82 ], [ %6, %65 ]
  %85 = zext nneg i32 %.1104 to i64
  %86 = getelementptr inbounds nuw [1 x i32], ptr %7, i64 0, i64 %85
  %87 = load i32, ptr %86, align 4, !tbaa !3
  %88 = getelementptr inbounds nuw [1 x i32], ptr %8, i64 0, i64 %85
  %89 = load i32, ptr %88, align 4, !tbaa !3
  %90 = and i32 %89, %87
  %91 = getelementptr inbounds nuw [1 x i32], ptr %9, i64 0, i64 %85
  %92 = load i32, ptr %91, align 4, !tbaa !3
  %93 = and i32 %92, %89
  %94 = icmp ult i32 %90, %93
  br i1 %94, label %.loopexit, label %95

95:                                               ; preds = %.preheader
  %96 = icmp ugt i32 %90, %93
  br i1 %96, label %.loopexit, label %82

.loopexit:                                        ; preds = %68, %80, %.preheader, %95, %82, %63, %59, %57, %53, %51, %43, %41, %28, %26, %22, %20, %10
  %.080 = phi i32 [ -1, %10 ], [ 1, %20 ], [ -1, %22 ], [ %., %26 ], [ -1, %28 ], [ 1, %41 ], [ -1, %43 ], [ 1, %51 ], [ -1, %53 ], [ 1, %57 ], [ -1, %59 ], [ %.99, %63 ], [ 0, %82 ], [ 1, %95 ], [ -1, %.preheader ], [ 1, %80 ], [ -1, %68 ]
  ret i32 %.080
}